; Function Attrs: mustprogress nounwind uwtable
define hidden void @_ZNK5clang7targets15ARMleTargetInfo16getTargetDefinesERKNS_11LangOptionsERNS_12MacroBuilderE(ptr noundef nonnull align 8 dereferenceable(624) %0, ptr nocapture noundef nonnull readonly align 8 dereferenceable(841) %1, ptr noundef nonnull align 8 dereferenceable(8) %2) unnamed_addr #0 align 2 {
  %4 = alloca %"class.llvm::Twine", align 8
  %5 = alloca %"class.llvm::Twine", align 8
  %6 = getelementptr inbounds nuw i8, ptr %4, i64 32
  %7 = getelementptr inbounds nuw i8, ptr %4, i64 33
  store i8 1, ptr %7, align 1
  store ptr @.str.315, ptr %4, align 8
  store i8 3, ptr %6, align 8
  %8 = getelementptr inbounds nuw i8, ptr %5, i64 32
  %9 = getelementptr inbounds nuw i8, ptr %5, i64 33
  store i8 1, ptr %9, align 1
  store ptr @.str.116, ptr %5, align 8
  store i8 3, ptr %8, align 8
  call void @_ZN5clang12MacroBuilder11defineMacroERKN4llvm5TwineES4_(ptr noundef nonnull align 8 dereferenceable(8) %2, ptr noundef nonnull align 8 dereferenceable(34) %4, ptr noundef nonnull align 8 dereferenceable(34) %5)
  call void @_ZNK5clang7targets13ARMTargetInfo16getTargetDefinesERKNS_11LangOptionsERNS_12MacroBuilderE(ptr noundef nonnull align 8 dereferenceable(624) %0, ptr noundef nonnull align 8 dereferenceable(841) %1, ptr noundef nonnull align 8 dereferenceable(8) %2)
  ret void
}